target datalayout = "e-m:e-p270:32:32-p271:32:32-p272:64:64-i64:64-i128:128-f80:128-n8:16:32:64-S128"
target triple = "x86_64-pc-linux-gnu"

%struct.Mini_Aig_t_ = type { i32, i32, i32, ptr }

@.str.17 = private unnamed_addr constant [19 x i8] c"mini_aig_miter.aig\00", align 1
@.str.18 = private unnamed_addr constant [21 x i8] c"mini_aig_reduced.aig\00", align 1
@.str.19 = private unnamed_addr constant [17 x i8] c"&ps; &scorr; &ps\00", align 1
@.str.20 = private unnamed_addr constant [32 x i8] c"Dumped miter AIG in file \22%s\22.\0A\00", align 1
@.str.21 = private unnamed_addr constant [34 x i8] c"Dumped reduced AIG in file \22%s\22.\0A\00", align 1

; Function Attrs: nounwind uwtable
define internal void @Mini_AigStop(ptr noundef %0) #0 {
  %2 = alloca ptr, align 8
  store ptr %0, ptr %2, align 8, !tbaa !10
  %3 = load ptr, ptr %2, align 8, !tbaa !10
  %4 = getelementptr inbounds nuw %struct.Mini_Aig_t_, ptr %3, i32 0, i32 3
  %5 = load ptr, ptr %4, align 8, !tbaa !14
  %6 = icmp ne ptr %5, null
  br i1 %6, label %7, label %13

7:                                                ; preds = %1
  %8 = load ptr, ptr %2, align 8, !tbaa !10
  %9 = getelementptr inbounds nuw %struct.Mini_Aig_t_, ptr %8, i32 0, i32 3
  %10 = load ptr, ptr %9, align 8, !tbaa !14
  call void @free(ptr noundef %10) #13
  %11 = load ptr, ptr %2, align 8, !tbaa !10
  %12 = getelementptr inbounds nuw %struct.Mini_Aig_t_, ptr %11, i32 0, i32 3
  store ptr null, ptr %12, align 8, !tbaa !14
  br label %14

13:                                               ; preds = %1
  br label %14

14:                                               ; preds = %13, %7
  %15 = load ptr, ptr %2, align 8, !tbaa !10
  %16 = icmp ne ptr %15, null
  br i1 %16, label %17, label %19

17:                                               ; preds = %14
  %18 = load ptr, ptr %2, align 8, !tbaa !10
  call void @free(ptr noundef %18) #13
  store ptr null, ptr %2, align 8, !tbaa !10
  br label %20

19:                                               ; preds = %14
  br label %20

20:                                               ; preds = %19, %17
  ret void
}

; Function Attrs: nounwind uwtable
define void @Gia_MiniAigVerify(ptr noundef %0, ptr noundef %1) #0 {
  %3 = alloca ptr, align 8
  %4 = alloca ptr, align 8
  %5 = alloca ptr, align 8
  %6 = alloca ptr, align 8
  %7 = alloca ptr, align 8
  %8 = alloca ptr, align 8
  %9 = alloca ptr, align 8
  store ptr %0, ptr %3, align 8, !tbaa !58
  store ptr %1, ptr %4, align 8, !tbaa !42
  call void @llvm.lifetime.start.p0(i64 8, ptr %5) #13
  call void @llvm.lifetime.start.p0(i64 8, ptr %6) #13
  call void @llvm.lifetime.start.p0(i64 8, ptr %7) #13
  store ptr @.str.17, ptr %7, align 8, !tbaa !42
  call void @llvm.lifetime.start.p0(i64 8, ptr %8) #13
  store ptr @.str.18, ptr %8, align 8, !tbaa !42
  call void @llvm.lifetime.start.p0(i64 8, ptr %9) #13
  %10 = load ptr, ptr %4, align 8, !tbaa !42
  %11 = call ptr @Mini_AigLoad(ptr noundef %10)
  store ptr %11, ptr %9, align 8, !tbaa !10
  %12 = load ptr, ptr %3, align 8, !tbaa !58
  %13 = load ptr, ptr %9, align 8, !tbaa !10
  call void @Abc_FrameGiaInputMiniAig(ptr noundef %12, ptr noundef %13)
  %14 = load ptr, ptr %3, align 8, !tbaa !58
  %15 = call i32 @Cmd_CommandExecute(ptr noundef %14, ptr noundef @.str.19)
  %16 = load ptr, ptr %3, align 8, !tbaa !58
  %17 = call ptr @Abc_FrameReadMiniAigEquivClasses(ptr noundef %16)
  store ptr %17, ptr %5, align 8, !tbaa !83
  %18 = load ptr, ptr %9, align 8, !tbaa !10
  %19 = load ptr, ptr %5, align 8, !tbaa !83
  %20 = call ptr @Gia_MiniAigMiter(ptr noundef %18, ptr noundef %19)
  store ptr %20, ptr %6, align 8, !tbaa !3
  %21 = load ptr, ptr %6, align 8, !tbaa !3
  %22 = load ptr, ptr %7, align 8, !tbaa !42
  call void @Gia_AigerWrite(ptr noundef %21, ptr noundef %22, i32 noundef 0, i32 noundef 0, i32 noundef 0)
  %23 = load ptr, ptr %7, align 8, !tbaa !42
  %24 = call i32 (ptr, ...) @printf(ptr noundef @.str.20, ptr noundef %23)
  %25 = load ptr, ptr %6, align 8, !tbaa !3
  call void @Gia_ManStop(ptr noundef %25)
  %26 = load ptr, ptr %9, align 8, !tbaa !10
  %27 = load ptr, ptr %5, align 8, !tbaa !83
  %28 = call ptr @Gia_MiniAigReduce(ptr noundef %26, ptr noundef %27)
  store ptr %28, ptr %6, align 8, !tbaa !3
  %29 = load ptr, ptr %6, align 8, !tbaa !3
  %30 = load ptr, ptr %8, align 8, !tbaa !42
  call void @Gia_AigerWrite(ptr noundef %29, ptr noundef %30, i32 noundef 0, i32 noundef 0, i32 noundef 0)
  %31 = load ptr, ptr %8, align 8, !tbaa !42
  %32 = call i32 (ptr, ...) @printf(ptr noundef @.str.21, ptr noundef %31)
  %33 = load ptr, ptr %6, align 8, !tbaa !3
  call void @Gia_ManStop(ptr noundef %33)
  %34 = load ptr, ptr %5, align 8, !tbaa !83
  %35 = icmp ne ptr %34, null
  br i1 %35, label %36, label %38

36:                                               ; preds = %2
  %37 = load ptr, ptr %5, align 8, !tbaa !83
  call void @free(ptr noundef %37) #13
  store ptr null, ptr %5, align 8, !tbaa !83
  br label %39

38:                                               ; preds = %2
  br label %39

39:                                               ; preds = %38, %36
  %40 = load ptr, ptr %9, align 8, !tbaa !10
  call void @Mini_AigStop(ptr noundef %40)
  call void @llvm.lifetime.end.p0(i64 8, ptr %9) #13
  call void @llvm.lifetime.end.p0(i64 8, ptr %8) #13
  call void @llvm.lifetime.end.p0(i64 8, ptr %7) #13
  call void @llvm.lifetime.end.p0(i64 8, ptr %6) #13
  call void @llvm.lifetime.end.p0(i64 8, ptr %5) #13
  ret void
}