; Function Attrs: nounwind uwtable
define void @Gia_MiniAigVerify(ptr noundef %0, ptr noundef %1) local_unnamed_addr #2 {
  %3 = tail call fastcc ptr @Mini_AigLoad(ptr noundef %1)
  tail call void @Abc_FrameGiaInputMiniAig(ptr noundef %0, ptr noundef %3)
  %4 = tail call i32 @Cmd_CommandExecute(ptr noundef %0, ptr noundef nonnull @.str.19) #25
  %5 = tail call ptr @Abc_FrameReadMiniAigEquivClasses(ptr noundef %0)
  %6 = tail call ptr @Gia_MiniAigMiter(ptr noundef %3, ptr noundef %5)
  tail call void @Gia_AigerWrite(ptr noundef %6, ptr noundef nonnull @.str.17, i32 noundef 0, i32 noundef 0, i32 noundef 0) #25
  %7 = tail call i32 (ptr, ...) @printf(ptr noundef nonnull dereferenceable(1) @.str.20, ptr noundef nonnull @.str.17)
  tail call void @Gia_ManStop(ptr noundef %6) #25
  %8 = tail call ptr @Gia_MiniAigReduce(ptr noundef %3, ptr noundef %5)
  tail call void @Gia_AigerWrite(ptr noundef %8, ptr noundef nonnull @.str.18, i32 noundef 0, i32 noundef 0, i32 noundef 0) #25
  %9 = tail call i32 (ptr, ...) @printf(ptr noundef nonnull dereferenceable(1) @.str.21, ptr noundef nonnull @.str.18)
  tail call void @Gia_ManStop(ptr noundef %8) #25
  %.not = icmp eq ptr %5, null
  br i1 %.not, label %11, label %10

10:                                               ; preds = %2
  tail call void @free(ptr noundef nonnull %5) #25
  br label %11

11:                                               ; preds = %2, %10
  %12 = getelementptr inbounds nuw i8, ptr %3, i64 16
  %13 = load ptr, ptr %12, align 8, !tbaa !3
  %.not.i = icmp eq ptr %13, null
  br i1 %.not.i, label %Mini_AigStop.exit, label %14

14:                                               ; preds = %11
  tail call void @free(ptr noundef nonnull %13) #25
  br label %Mini_AigStop.exit

Mini_AigStop.exit:                                ; preds = %11, %14
  tail call void @free(ptr noundef nonnull %3) #25
  ret void
}